target datalayout = "e-m:e-p270:32:32-p271:32:32-p272:64:64-i64:64-i128:128-f80:128-n8:16:32:64-S128"
target triple = "x86_64-pc-linux-gnu"

%struct.ControlFileData = type { i64, i32, i32, i32, i64, i64, %struct.CheckPoint, i64, i64, i32, i64, i64, i8, i32, i8, i32, i32, i32, i32, i32, i8, i32, double, i32, i32, i32, i32, i32, i32, i32, i32, i8, i32, [32 x i8], i32 }
%struct.CheckPoint = type { i64, i32, i32, i8, i32, %struct.FullTransactionId, i32, i32, i32, i32, i32, i32, i32, i64, i32, i32, i32 }
%struct.FullTransactionId = type { i64 }

@.str.2 = private unnamed_addr constant [20 x i8] c"controldata_utils.c\00", align 1
@.str.5 = private unnamed_addr constant [30 x i8] c"could not close file \22%s\22: %m\00", align 1
@pg_comp_crc32c = external global ptr, align 8
@.str.7 = private unnamed_addr constant [6 x i8] c"%s/%s\00", align 1
@.str.8 = private unnamed_addr constant [18 x i8] c"global/pg_control\00", align 1
@.str.9 = private unnamed_addr constant [29 x i8] c"could not open file \22%s\22: %m\00", align 1
@__func__.update_controlfile = private unnamed_addr constant [19 x i8] c"update_controlfile\00", align 1
@.str.10 = private unnamed_addr constant [30 x i8] c"could not write file \22%s\22: %m\00", align 1
@.str.11 = private unnamed_addr constant [30 x i8] c"could not fsync file \22%s\22: %m\00", align 1
@my_wait_event_info = external global ptr, align 8

; Function Attrs: inlinehint nounwind uwtable
define internal void @pgstat_report_wait_end() #8 {
  %1 = load ptr, ptr @my_wait_event_info, align 8
  store volatile i32 0, ptr %1, align 4
  ret void
}

; Function Attrs: inlinehint nounwind uwtable
define internal void @pgstat_report_wait_start(i32 noundef %0) #8 {
  %2 = alloca i32, align 4
  store i32 %0, ptr %2, align 4
  %3 = load i32, ptr %2, align 4
  %4 = load ptr, ptr @my_wait_event_info, align 8
  store volatile i32 %3, ptr %4, align 4
  ret void
}

; Function Attrs: nounwind uwtable
define dso_local void @update_controlfile(ptr noundef %0, ptr noundef %1, i1 noundef zeroext %2) #0 {
  %4 = alloca ptr, align 8
  %5 = alloca ptr, align 8
  %6 = alloca i8, align 1
  %7 = alloca i32, align 4
  %8 = alloca [8192 x i8], align 16
  %9 = alloca [1024 x i8], align 16
  store ptr %0, ptr %4, align 8
  store ptr %1, ptr %5, align 8
  %10 = zext i1 %2 to i8
  store i8 %10, ptr %6, align 1
  call void @llvm.lifetime.start.p0(i64 4, ptr %7) #9
  call void @llvm.lifetime.start.p0(i64 8192, ptr %8) #9
  call void @llvm.lifetime.start.p0(i64 1024, ptr %9) #9
  %11 = call i64 @time(ptr noundef null) #9
  %12 = load ptr, ptr %5, align 8
  %13 = getelementptr inbounds nuw %struct.ControlFileData, ptr %12, i32 0, i32 4
  store i64 %11, ptr %13, align 8
  %14 = load ptr, ptr %5, align 8
  %15 = getelementptr inbounds nuw %struct.ControlFileData, ptr %14, i32 0, i32 34
  store i32 -1, ptr %15, align 8
  %16 = load ptr, ptr @pg_comp_crc32c, align 8
  %17 = load ptr, ptr %5, align 8
  %18 = getelementptr inbounds nuw %struct.ControlFileData, ptr %17, i32 0, i32 34
  %19 = load i32, ptr %18, align 8
  %20 = load ptr, ptr %5, align 8
  %21 = call i32 %16(i32 noundef %19, ptr noundef %20, i64 noundef 288)
  %22 = load ptr, ptr %5, align 8
  %23 = getelementptr inbounds nuw %struct.ControlFileData, ptr %22, i32 0, i32 34
  store i32 %21, ptr %23, align 8
  %24 = load ptr, ptr %5, align 8
  %25 = getelementptr inbounds nuw %struct.ControlFileData, ptr %24, i32 0, i32 34
  %26 = load i32, ptr %25, align 8
  %27 = xor i32 %26, -1
  store i32 %27, ptr %25, align 8
  %28 = getelementptr inbounds [8192 x i8], ptr %8, i64 0, i64 0
  call void @llvm.memset.p0.i64(ptr align 16 %28, i8 0, i64 8192, i1 false)
  %29 = getelementptr inbounds [8192 x i8], ptr %8, i64 0, i64 0
  %30 = load ptr, ptr %5, align 8
  call void @llvm.memcpy.p0.p0.i64(ptr align 16 %29, ptr align 8 %30, i64 296, i1 false)
  %31 = getelementptr inbounds [1024 x i8], ptr %9, i64 0, i64 0
  %32 = load ptr, ptr %4, align 8
  %33 = call i32 (ptr, i64, ptr, ...) @pg_snprintf(ptr noundef %31, i64 noundef 1024, ptr noundef @.str.7, ptr noundef %32, ptr noundef @.str.8)
  %34 = getelementptr inbounds [1024 x i8], ptr %9, i64 0, i64 0
  %35 = call i32 @BasicOpenFile(ptr noundef %34, i32 noundef 2)
  store i32 %35, ptr %7, align 4
  %36 = icmp slt i32 %35, 0
  br i1 %36, label %37, label %50

37:                                               ; preds = %3
  br label %38

38:                                               ; preds = %37
  br i1 true, label %39, label %41

39:                                               ; preds = %38
  %40 = call zeroext i1 @errstart_cold(i32 noundef 23, ptr noundef null) #10
  br i1 %40, label %43, label %47

41:                                               ; preds = %38
  %42 = call zeroext i1 @errstart(i32 noundef 23, ptr noundef null)
  br i1 %42, label %43, label %47

43:                                               ; preds = %41, %39
  %44 = call i32 @errcode_for_file_access()
  %45 = getelementptr inbounds [1024 x i8], ptr %9, i64 0, i64 0
  %46 = call i32 (ptr, ...) @errmsg(ptr noundef @.str.9, ptr noundef %45)
  call void @errfinish(ptr noundef @.str.2, i32 noundef 226, ptr noundef @__func__.update_controlfile)
  br label %47

47:                                               ; preds = %43, %41, %39
  unreachable

48:                                               ; No predecessors!
  br label %49

49:                                               ; preds = %48
  br label %50

50:                                               ; preds = %49, %3
  %51 = call ptr @__errno_location() #11
  store i32 0, ptr %51, align 4
  call void @pgstat_report_wait_start(i32 noundef 167772170)
  %52 = load i32, ptr %7, align 4
  %53 = getelementptr inbounds [8192 x i8], ptr %8, i64 0, i64 0
  %54 = call i64 @write(i32 noundef %52, ptr noundef %53, i64 noundef 8192)
  %55 = icmp ne i64 %54, 8192
  br i1 %55, label %56, label %75

56:                                               ; preds = %50
  %57 = call ptr @__errno_location() #11
  %58 = load i32, ptr %57, align 4
  %59 = icmp eq i32 %58, 0
  br i1 %59, label %60, label %62

60:                                               ; preds = %56
  %61 = call ptr @__errno_location() #11
  store i32 28, ptr %61, align 4
  br label %62

62:                                               ; preds = %60, %56
  br label %63

63:                                               ; preds = %62
  br i1 true, label %64, label %66

64:                                               ; preds = %63
  %65 = call zeroext i1 @errstart_cold(i32 noundef 23, ptr noundef null) #10
  br i1 %65, label %68, label %72

66:                                               ; preds = %63
  %67 = call zeroext i1 @errstart(i32 noundef 23, ptr noundef null)
  br i1 %67, label %68, label %72

68:                                               ; preds = %66, %64
  %69 = call i32 @errcode_for_file_access()
  %70 = getelementptr inbounds [1024 x i8], ptr %9, i64 0, i64 0
  %71 = call i32 (ptr, ...) @errmsg(ptr noundef @.str.10, ptr noundef %70)
  call void @errfinish(ptr noundef @.str.2, i32 noundef 247, ptr noundef @__func__.update_controlfile)
  br label %72

72:                                               ; preds = %68, %66, %64
  unreachable

73:                                               ; No predecessors!
  br label %74

74:                                               ; preds = %73
  br label %75

75:                                               ; preds = %74, %50
  call void @pgstat_report_wait_end()
  %76 = load i8, ptr %6, align 1, !range !4, !noundef !5
  %77 = trunc i8 %76 to i1
  br i1 %77, label %78, label %96

78:                                               ; preds = %75
  call void @pgstat_report_wait_start(i32 noundef 167772168)
  %79 = load i32, ptr %7, align 4
  %80 = call i32 @pg_fsync(i32 noundef %79)
  %81 = icmp ne i32 %80, 0
  br i1 %81, label %82, label %95

82:                                               ; preds = %78
  br label %83

83:                                               ; preds = %82
  br i1 true, label %84, label %86

84:                                               ; preds = %83
  %85 = call zeroext i1 @errstart_cold(i32 noundef 23, ptr noundef null) #10
  br i1 %85, label %88, label %92

86:                                               ; preds = %83
  %87 = call zeroext i1 @errstart(i32 noundef 23, ptr noundef null)
  br i1 %87, label %88, label %92

88:                                               ; preds = %86, %84
  %89 = call i32 @errcode_for_file_access()
  %90 = getelementptr inbounds [1024 x i8], ptr %9, i64 0, i64 0
  %91 = call i32 (ptr, ...) @errmsg(ptr noundef @.str.11, ptr noundef %90)
  call void @errfinish(ptr noundef @.str.2, i32 noundef 264, ptr noundef @__func__.update_controlfile)
  br label %92

92:                                               ; preds = %88, %86, %84
  unreachable

93:                                               ; No predecessors!
  br label %94

94:                                               ; preds = %93
  br label %95

95:                                               ; preds = %94, %78
  call void @pgstat_report_wait_end()
  br label %96

96:                                               ; preds = %95, %75
  %97 = load i32, ptr %7, align 4
  %98 = call i32 @close(i32 noundef %97)
  %99 = icmp ne i32 %98, 0
  br i1 %99, label %100, label %113

100:                                              ; preds = %96
  br label %101

101:                                              ; preds = %100
  br i1 true, label %102, label %104

102:                                              ; preds = %101
  %103 = call zeroext i1 @errstart_cold(i32 noundef 23, ptr noundef null) #10
  br i1 %103, label %106, label %110

104:                                              ; preds = %101
  %105 = call zeroext i1 @errstart(i32 noundef 23, ptr noundef null)
  br i1 %105, label %106, label %110

106:                                              ; preds = %104, %102
  %107 = call i32 @errcode_for_file_access()
  %108 = getelementptr inbounds [1024 x i8], ptr %9, i64 0, i64 0
  %109 = call i32 (ptr, ...) @errmsg(ptr noundef @.str.5, ptr noundef %108)
  call void @errfinish(ptr noundef @.str.2, i32 noundef 278, ptr noundef @__func__.update_controlfile)
  br label %110

110:                                              ; preds = %106, %104, %102
  unreachable

111:                                              ; No predecessors!
  br label %112

112:                                              ; preds = %111
  br label %113

113:                                              ; preds = %112, %96
  call void @llvm.lifetime.end.p0(i64 1024, ptr %9) #9
  call void @llvm.lifetime.end.p0(i64 8192, ptr %8) #9
  call void @llvm.lifetime.end.p0(i64 4, ptr %7) #9
  ret void
}