; Function Attrs: nounwind uwtable
define dso_local void @update_controlfile(ptr noundef %0, ptr noundef initializes((24, 32), (288, 292)) %1, i1 noundef zeroext %2) local_unnamed_addr #0 {
  %4 = alloca [8192 x i8], align 16
  %5 = alloca [1024 x i8], align 16
  call void @llvm.lifetime.start.p0(i64 8192, ptr nonnull %4) #10
  call void @llvm.lifetime.start.p0(i64 1024, ptr nonnull %5) #10
  %6 = tail call i64 @time(ptr noundef null) #10
  %7 = getelementptr inbounds nuw i8, ptr %1, i64 24
  store i64 %6, ptr %7, align 8
  %8 = getelementptr inbounds nuw i8, ptr %1, i64 288
  store i32 -1, ptr %8, align 8
  %9 = load ptr, ptr @pg_comp_crc32c, align 8
  %10 = tail call i32 %9(i32 noundef -1, ptr noundef %1, i64 noundef 288) #10
  %11 = xor i32 %10, -1
  store i32 %11, ptr %8, align 8
  %12 = getelementptr inbounds nuw i8, ptr %4, i64 296
  call void @llvm.memset.p0.i64(ptr noundef nonnull align 8 dereferenceable(7896) %12, i8 0, i64 7896, i1 false)
  call void @llvm.memcpy.p0.p0.i64(ptr noundef nonnull align 16 dereferenceable(296) %4, ptr noundef nonnull align 8 dereferenceable(296) %1, i64 296, i1 false)
  %13 = call i32 (ptr, i64, ptr, ...) @pg_snprintf(ptr noundef nonnull %5, i64 noundef 1024, ptr noundef nonnull @.str.7, ptr noundef %0, ptr noundef nonnull @.str.8) #10
  %14 = call i32 @BasicOpenFile(ptr noundef nonnull %5, i32 noundef 2) #10
  %15 = icmp slt i32 %14, 0
  br i1 %15, label %16, label %20

16:                                               ; preds = %3
  %17 = call zeroext i1 @errstart_cold(i32 noundef 23, ptr noundef null) #11
  call void @llvm.assume(i1 %17)
  %18 = call i32 @errcode_for_file_access() #10
  %19 = call i32 (ptr, ...) @errmsg(ptr noundef nonnull @.str.9, ptr noundef nonnull %5) #10
  call void @errfinish(ptr noundef nonnull @.str.2, i32 noundef 226, ptr noundef nonnull @__func__.update_controlfile) #10
  unreachable

20:                                               ; preds = %3
  %21 = tail call ptr @__errno_location() #12
  store i32 0, ptr %21, align 4
  %22 = load ptr, ptr @my_wait_event_info, align 8
  store volatile i32 167772170, ptr %22, align 4
  %23 = call i64 @write(i32 noundef %14, ptr noundef nonnull %4, i64 noundef 8192) #10
  %.not = icmp eq i64 %23, 8192
  br i1 %.not, label %32, label %24

24:                                               ; preds = %20
  %25 = load i32, ptr %21, align 4
  %26 = icmp eq i32 %25, 0
  br i1 %26, label %27, label %28

27:                                               ; preds = %24
  store i32 28, ptr %21, align 4
  br label %28

28:                                               ; preds = %27, %24
  %29 = call zeroext i1 @errstart_cold(i32 noundef 23, ptr noundef null) #11
  call void @llvm.assume(i1 %29)
  %30 = call i32 @errcode_for_file_access() #10
  %31 = call i32 (ptr, ...) @errmsg(ptr noundef nonnull @.str.10, ptr noundef nonnull %5) #10
  call void @errfinish(ptr noundef nonnull @.str.2, i32 noundef 247, ptr noundef nonnull @__func__.update_controlfile) #10
  unreachable

32:                                               ; preds = %20
  %33 = load ptr, ptr @my_wait_event_info, align 8
  store volatile i32 0, ptr %33, align 4
  br i1 %2, label %34, label %43

34:                                               ; preds = %32
  %35 = load ptr, ptr @my_wait_event_info, align 8
  store volatile i32 167772168, ptr %35, align 4
  %36 = call i32 @pg_fsync(i32 noundef %14) #10
  %.not11 = icmp eq i32 %36, 0
  br i1 %.not11, label %41, label %37

37:                                               ; preds = %34
  %38 = call zeroext i1 @errstart_cold(i32 noundef 23, ptr noundef null) #11
  call void @llvm.assume(i1 %38)
  %39 = call i32 @errcode_for_file_access() #10
  %40 = call i32 (ptr, ...) @errmsg(ptr noundef nonnull @.str.11, ptr noundef nonnull %5) #10
  call void @errfinish(ptr noundef nonnull @.str.2, i32 noundef 264, ptr noundef nonnull @__func__.update_controlfile) #10
  unreachable

41:                                               ; preds = %34
  %42 = load ptr, ptr @my_wait_event_info, align 8
  store volatile i32 0, ptr %42, align 4
  br label %43

43:                                               ; preds = %41, %32
  %44 = call i32 @close(i32 noundef %14) #10
  %.not12 = icmp eq i32 %44, 0
  br i1 %.not12, label %49, label %45

45:                                               ; preds = %43
  %46 = call zeroext i1 @errstart_cold(i32 noundef 23, ptr noundef null) #11
  call void @llvm.assume(i1 %46)
  %47 = call i32 @errcode_for_file_access() #10
  %48 = call i32 (ptr, ...) @errmsg(ptr noundef nonnull @.str.5, ptr noundef nonnull %5) #10
  call void @errfinish(ptr noundef nonnull @.str.2, i32 noundef 278, ptr noundef nonnull @__func__.update_controlfile) #10
  unreachable

49:                                               ; preds = %43
  call void @llvm.lifetime.end.p0(i64 1024, ptr nonnull %5) #10
  call void @llvm.lifetime.end.p0(i64 8192, ptr nonnull %4) #10
  ret void
}